; Function Attrs: mustprogress nofree norecurse nosync nounwind willreturn memory(argmem: readwrite) uwtable
define noundef i32 @_ZNK6icu_778Collator15getReorderCodesEPiiR10UErrorCode(ptr nonnull readnone align 8 captures(none) %0, ptr readnone captures(none) %1, i32 %2, ptr noundef nonnull align 4 captures(none) dereferenceable(4) %3) unnamed_addr #8 align 2 {
  %5 = load i32, ptr %3, align 4, !tbaa !6
  %6 = icmp sgt i32 %5, 0
  br i1 %6, label %8, label %7

7:                                                ; preds = %4
  store i32 16, ptr %3, align 4, !tbaa !6
  br label %8

8:                                                ; preds = %7, %4
  ret i32 0
}